; Function Attrs: null_pointer_is_valid sspstrong uwtable
define i32 @dissect_h225_ReleaseCompleteReason(ptr noundef %0, i32 noundef %1, ptr noundef %2, ptr noundef %3, i32 noundef %4) #0 {
  %6 = alloca i32, align 4
  call void @llvm.lifetime.start.p0(i64 4, ptr nonnull %6) #11
  %7 = getelementptr inbounds nuw i8, ptr %2, i64 16
  %8 = load ptr, ptr %7, align 8
  %9 = getelementptr inbounds nuw i8, ptr %8, i64 408
  %10 = load ptr, ptr %9, align 8
  %11 = load i32, ptr @proto_h225, align 4
  %12 = tail call ptr @p_get_proto_data(ptr noundef %10, ptr noundef %8, i32 noundef %11, i32 noundef 0)
  %13 = load i32, ptr @ett_h225_ReleaseCompleteReason, align 4
  %14 = call i32 @dissect_per_choice(ptr noundef %0, i32 noundef %1, ptr noundef %2, ptr noundef %3, i32 noundef %4, i32 noundef %13, ptr noundef nonnull @ReleaseCompleteReason_choice, ptr noundef nonnull %6)
  %.not = icmp eq ptr %12, null
  br i1 %.not, label %18, label %15

15:                                               ; preds = %5
  %16 = load i32, ptr %6, align 4
  %17 = getelementptr inbounds nuw i8, ptr %12, i64 12
  store i32 %16, ptr %17, align 4
  br label %18

18:                                               ; preds = %15, %5
  call void @llvm.lifetime.end.p0(i64 4, ptr nonnull %6) #11
  ret i32 %14
}